; Function Attrs: mustprogress nofree norecurse nosync nounwind willreturn memory(readwrite, inaccessiblemem: none) uwtable
define internal void @"_ZNSt17_Function_handlerIFvvEZN9V3Options13parseOptsListEP8FileLineRKNSt7__cxx1112basic_stringIcSt11char_traitsIcESaIcEEEiPPcE4$_17E9_M_invokeERKSt9_Any_data"(ptr noundef nonnull readonly align 8 captures(none) dereferenceable(16) %0) #29 align 2 {
  %.val = load ptr, ptr %0, align 8, !tbaa !688
  %2 = getelementptr inbounds nuw i8, ptr %.val, i64 809
  store i8 1, ptr %2, align 1, !tbaa !268
  %3 = getelementptr inbounds nuw i8, ptr %.val, i64 810
  store i8 1, ptr %3, align 2, !tbaa !265
  %4 = getelementptr inbounds nuw i8, ptr %.val, i64 835
  store i8 1, ptr %4, align 1, !tbaa !274
  %5 = getelementptr inbounds nuw i8, ptr %.val, i64 842
  store i8 1, ptr %5, align 2, !tbaa !260
  %6 = getelementptr inbounds nuw i8, ptr %.val, i64 874
  %7 = load i8, ptr %6, align 1, !tbaa !303
  %spec.select.i.i.i.i = icmp ult i8 %7, 2
  br i1 %spec.select.i.i.i.i, label %8, label %"_ZSt10__invoke_rIvRZN9V3Options13parseOptsListEP8FileLineRKNSt7__cxx1112basic_stringIcSt11char_traitsIcESaIcEEEiPPcE4$_17JEENSt9enable_ifIX16is_invocable_r_vIT_T0_DpT1_EESG_E4typeEOSH_DpOSI_.exit"

8:                                                ; preds = %1
  store i8 2, ptr %6, align 2, !tbaa !302
  br label %"_ZSt10__invoke_rIvRZN9V3Options13parseOptsListEP8FileLineRKNSt7__cxx1112basic_stringIcSt11char_traitsIcESaIcEEEiPPcE4$_17JEENSt9enable_ifIX16is_invocable_r_vIT_T0_DpT1_EESG_E4typeEOSH_DpOSI_.exit"

"_ZSt10__invoke_rIvRZN9V3Options13parseOptsListEP8FileLineRKNSt7__cxx1112basic_stringIcSt11char_traitsIcESaIcEEEiPPcE4$_17JEENSt9enable_ifIX16is_invocable_r_vIT_T0_DpT1_EESG_E4typeEOSH_DpOSI_.exit": ; preds = %1, %8
  ret void
}